target datalayout = "e-m:e-p270:32:32-p271:32:32-p272:64:64-i64:64-i128:128-f80:128-n8:16:32:64-S128"
target triple = "x86_64-pc-linux-gnu"

%struct.ZSTD_customMem = type { ptr, ptr, ptr }
%struct.ZSTD_frameParameters = type { i32, i32, i32 }
%struct.ZSTD_compressionParameters = type { i32, i32, i32, i32, i32, i32, i32 }
%struct.ZSTD_CCtx_s = type { i32, i32, i32, %struct.ZSTD_CCtx_params_s, %struct.ZSTD_CCtx_params_s, %struct.ZSTD_CCtx_params_s, i32, i64, %struct.ZSTD_cwksp, i64, i64, i64, i64, %struct.XXH64_state_s, %struct.ZSTD_customMem, ptr, i64, %struct.SeqCollector, i32, i32, %struct.SeqStore_t, %struct.ldmState_t, ptr, i64, %struct.RawSeqStore_t, %struct.ZSTD_blockState_t, ptr, i64, i32, ptr, i64, i64, i64, i64, ptr, i64, i64, i64, i32, i32, %struct.ZSTD_inBuffer_s, i64, i64, %struct.ZSTD_localDict, ptr, %struct.ZSTD_prefixDict_s, ptr, i64, %struct.ZSTD_blockSplitCtx, ptr, i64 }
%struct.ZSTD_CCtx_params_s = type { i32, %struct.ZSTD_compressionParameters, %struct.ZSTD_frameParameters, i32, i32, i64, i32, i32, i32, i32, i64, i32, i32, %struct.ldmParams_t, i32, i32, i32, i32, i32, i32, i32, i64, i32, i32, %struct.ZSTD_customMem, i32, i32, ptr, ptr, i32 }
%struct.ldmParams_t = type { i32, i32, i32, i32, i32, i32 }
%struct.ZSTD_cwksp = type { ptr, ptr, ptr, ptr, ptr, ptr, ptr, i8, i32, i32, i32 }
%struct.XXH64_state_s = type { i64, [4 x i64], [4 x i64], i32, i32, i64 }
%struct.SeqCollector = type { i32, ptr, i64, i64 }
%struct.SeqStore_t = type { ptr, ptr, ptr, ptr, ptr, ptr, ptr, i64, i64, i32, i32 }
%struct.ldmState_t = type { %struct.ZSTD_window_t, ptr, i32, ptr, [64 x i64], [64 x %struct.ldmMatchCandidate_t] }
%struct.ZSTD_window_t = type { ptr, ptr, ptr, i32, i32, i32 }
%struct.ldmMatchCandidate_t = type { ptr, i32, i32, ptr }
%struct.RawSeqStore_t = type { ptr, i64, i64, i64, i64 }
%struct.ZSTD_blockState_t = type { ptr, ptr, %struct.ZSTD_MatchState_t }
%struct.ZSTD_MatchState_t = type { %struct.ZSTD_window_t, i32, i32, i32, i32, ptr, [8 x i32], i64, i32, ptr, ptr, ptr, i32, i32, %struct.optState_t, ptr, %struct.ZSTD_compressionParameters, ptr, i32, i32 }
%struct.optState_t = type { ptr, ptr, ptr, ptr, ptr, ptr, i32, i32, i32, i32, i32, i32, i32, i32, i32, ptr, i32 }
%struct.ZSTD_inBuffer_s = type { ptr, i64, i64 }
%struct.ZSTD_localDict = type { ptr, ptr, i64, i32, ptr }
%struct.ZSTD_prefixDict_s = type { ptr, i64, i32 }
%struct.ZSTD_blockSplitCtx = type { %struct.SeqStore_t, %struct.SeqStore_t, %struct.SeqStore_t, %struct.SeqStore_t, %struct.SeqStore_t, [196 x i32], %struct.ZSTD_entropyCTablesMetadata_t }
%struct.ZSTD_entropyCTablesMetadata_t = type { %struct.ZSTD_hufCTablesMetadata_t, %struct.ZSTD_fseCTablesMetadata_t }
%struct.ZSTD_hufCTablesMetadata_t = type { i32, [128 x i8], i64 }
%struct.ZSTD_fseCTablesMetadata_t = type { i32, i32, i32, [133 x i8], i64, i64 }

; Function Attrs: nounwind uwtable
define internal i32 @ERR_isError(i64 noundef %0) #0 {
  %2 = alloca i64, align 8
  store i64 %0, ptr %2, align 8, !tbaa !3
  %3 = load i64, ptr %2, align 8, !tbaa !3
  %4 = icmp ugt i64 %3, -120
  %5 = zext i1 %4 to i32
  ret i32 %5
}

; Function Attrs: nounwind uwtable
define i64 @ZSTD_compressSequencesAndLiterals(ptr noundef %0, ptr noundef %1, i64 noundef %2, ptr noundef %3, i64 noundef %4, ptr noundef %5, i64 noundef %6, i64 noundef %7, i64 noundef %8) #0 {
  %10 = alloca i64, align 8
  %11 = alloca ptr, align 8
  %12 = alloca ptr, align 8
  %13 = alloca i64, align 8
  %14 = alloca ptr, align 8
  %15 = alloca i64, align 8
  %16 = alloca ptr, align 8
  %17 = alloca i64, align 8
  %18 = alloca i64, align 8
  %19 = alloca i64, align 8
  %20 = alloca ptr, align 8
  %21 = alloca i64, align 8
  %22 = alloca i32, align 4
  %23 = alloca i64, align 8
  %24 = alloca i64, align 8
  %25 = alloca i64, align 8
  %26 = alloca i64, align 8
  store ptr %0, ptr %11, align 8, !tbaa !11
  store ptr %1, ptr %12, align 8, !tbaa !15
  store i64 %2, ptr %13, align 8, !tbaa !3
  store ptr %3, ptr %14, align 8, !tbaa !15
  store i64 %4, ptr %15, align 8, !tbaa !3
  store ptr %5, ptr %16, align 8, !tbaa !15
  store i64 %6, ptr %17, align 8, !tbaa !3
  store i64 %7, ptr %18, align 8, !tbaa !3
  store i64 %8, ptr %19, align 8, !tbaa !3
  call void @llvm.lifetime.start.p0(i64 8, ptr %20) #15
  %27 = load ptr, ptr %12, align 8, !tbaa !15
  store ptr %27, ptr %20, align 8, !tbaa !198
  call void @llvm.lifetime.start.p0(i64 8, ptr %21) #15
  store i64 0, ptr %21, align 8, !tbaa !3
  br label %28

28:                                               ; preds = %9
  br label %29

29:                                               ; preds = %28
  br label %30

30:                                               ; preds = %29
  %31 = load i64, ptr %18, align 8, !tbaa !3
  %32 = load i64, ptr %17, align 8, !tbaa !3
  %33 = icmp ult i64 %31, %32
  br i1 %33, label %34, label %50

34:                                               ; preds = %30
  br label %35

35:                                               ; preds = %34
  br label %36

36:                                               ; preds = %35
  br label %37

37:                                               ; preds = %36
  br label %38

38:                                               ; preds = %37
  br label %39

39:                                               ; preds = %38
  br label %40

40:                                               ; preds = %39
  br label %41

41:                                               ; preds = %40
  br label %42

42:                                               ; preds = %41
  br label %43

43:                                               ; preds = %42
  br label %44

44:                                               ; preds = %43
  br label %45

45:                                               ; preds = %44
  br label %46

46:                                               ; preds = %45
  br label %47

47:                                               ; preds = %46
  store i64 -66, ptr %10, align 8
  store i32 1, ptr %22, align 4
  br label %210

48:                                               ; No predecessors!
  br label %49

49:                                               ; preds = %48
  br label %50

50:                                               ; preds = %49, %30
  br label %51

51:                                               ; preds = %50
  call void @llvm.lifetime.start.p0(i64 8, ptr %23) #15
  %52 = load ptr, ptr %11, align 8, !tbaa !11
  %53 = load i64, ptr %19, align 8, !tbaa !3
  %54 = call i64 @ZSTD_CCtx_init_compressStream2(ptr noundef %52, i32 noundef 2, i64 noundef %53)
  store i64 %54, ptr %23, align 8, !tbaa !3
  %55 = load i64, ptr %23, align 8, !tbaa !3
  %56 = call i32 @ERR_isError(i64 noundef %55)
  %57 = icmp ne i32 %56, 0
  br i1 %57, label %58, label %72

58:                                               ; preds = %51
  br label %59

59:                                               ; preds = %58
  br label %60

60:                                               ; preds = %59
  br label %61

61:                                               ; preds = %60
  br label %62

62:                                               ; preds = %61
  br label %63

63:                                               ; preds = %62
  br label %64

64:                                               ; preds = %63
  br label %65

65:                                               ; preds = %64
  br label %66

66:                                               ; preds = %65
  br label %67

67:                                               ; preds = %66
  br label %68

68:                                               ; preds = %67
  br label %69

69:                                               ; preds = %68
  br label %70

70:                                               ; preds = %69
  %71 = load i64, ptr %23, align 8, !tbaa !3
  store i64 %71, ptr %10, align 8
  store i32 1, ptr %22, align 4
  br label %73

72:                                               ; preds = %51
  store i32 0, ptr %22, align 4
  br label %73

73:                                               ; preds = %72, %70
  call void @llvm.lifetime.end.p0(i64 8, ptr %23) #15
  %74 = load i32, ptr %22, align 4
  switch i32 %74, label %210 [
    i32 0, label %75
  ]

75:                                               ; preds = %73
  br label %76

76:                                               ; preds = %75
  br label %77

77:                                               ; preds = %76
  %78 = load ptr, ptr %11, align 8, !tbaa !11
  %79 = getelementptr inbounds nuw %struct.ZSTD_CCtx_s, ptr %78, i32 0, i32 4
  %80 = getelementptr inbounds nuw %struct.ZSTD_CCtx_params_s, ptr %79, i32 0, i32 17
  %81 = load i32, ptr %80, align 4, !tbaa !315
  %82 = icmp eq i32 %81, 0
  br i1 %82, label %83, label %99

83:                                               ; preds = %77
  br label %84

84:                                               ; preds = %83
  br label %85

85:                                               ; preds = %84
  br label %86

86:                                               ; preds = %85
  br label %87

87:                                               ; preds = %86
  br label %88

88:                                               ; preds = %87
  br label %89

89:                                               ; preds = %88
  br label %90

90:                                               ; preds = %89
  br label %91

91:                                               ; preds = %90
  br label %92

92:                                               ; preds = %91
  br label %93

93:                                               ; preds = %92
  br label %94

94:                                               ; preds = %93
  br label %95

95:                                               ; preds = %94
  br label %96

96:                                               ; preds = %95
  store i64 -14, ptr %10, align 8
  store i32 1, ptr %22, align 4
  br label %210

97:                                               ; No predecessors!
  br label %98

98:                                               ; preds = %97
  br label %99

99:                                               ; preds = %98, %77
  %100 = load ptr, ptr %11, align 8, !tbaa !11
  %101 = getelementptr inbounds nuw %struct.ZSTD_CCtx_s, ptr %100, i32 0, i32 4
  %102 = getelementptr inbounds nuw %struct.ZSTD_CCtx_params_s, ptr %101, i32 0, i32 18
  %103 = load i32, ptr %102, align 8, !tbaa !331
  %104 = icmp ne i32 %103, 0
  br i1 %104, label %105, label %121

105:                                              ; preds = %99
  br label %106

106:                                              ; preds = %105
  br label %107

107:                                              ; preds = %106
  br label %108

108:                                              ; preds = %107
  br label %109

109:                                              ; preds = %108
  br label %110

110:                                              ; preds = %109
  br label %111

111:                                              ; preds = %110
  br label %112

112:                                              ; preds = %111
  br label %113

113:                                              ; preds = %112
  br label %114

114:                                              ; preds = %113
  br label %115

115:                                              ; preds = %114
  br label %116

116:                                              ; preds = %115
  br label %117

117:                                              ; preds = %116
  br label %118

118:                                              ; preds = %117
  store i64 -40, ptr %10, align 8
  store i32 1, ptr %22, align 4
  br label %210

119:                                              ; No predecessors!
  br label %120

120:                                              ; preds = %119
  br label %121

121:                                              ; preds = %120, %99
  %122 = load ptr, ptr %11, align 8, !tbaa !11
  %123 = getelementptr inbounds nuw %struct.ZSTD_CCtx_s, ptr %122, i32 0, i32 4
  %124 = getelementptr inbounds nuw %struct.ZSTD_CCtx_params_s, ptr %123, i32 0, i32 2
  %125 = getelementptr inbounds nuw %struct.ZSTD_frameParameters, ptr %124, i32 0, i32 1
  %126 = load i32, ptr %125, align 4, !tbaa !275
  %127 = icmp ne i32 %126, 0
  br i1 %127, label %128, label %144

128:                                              ; preds = %121
  br label %129

129:                                              ; preds = %128
  br label %130

130:                                              ; preds = %129
  br label %131

131:                                              ; preds = %130
  br label %132

132:                                              ; preds = %131
  br label %133

133:                                              ; preds = %132
  br label %134

134:                                              ; preds = %133
  br label %135

135:                                              ; preds = %134
  br label %136

136:                                              ; preds = %135
  br label %137

137:                                              ; preds = %136
  br label %138

138:                                              ; preds = %137
  br label %139

139:                                              ; preds = %138
  br label %140

140:                                              ; preds = %139
  br label %141

141:                                              ; preds = %140
  store i64 -14, ptr %10, align 8
  store i32 1, ptr %22, align 4
  br label %210

142:                                              ; No predecessors!
  br label %143

143:                                              ; preds = %142
  br label %144

144:                                              ; preds = %143, %121
  call void @llvm.lifetime.start.p0(i64 8, ptr %24) #15
  %145 = load ptr, ptr %20, align 8, !tbaa !198
  %146 = load i64, ptr %13, align 8, !tbaa !3
  %147 = load ptr, ptr %11, align 8, !tbaa !11
  %148 = getelementptr inbounds nuw %struct.ZSTD_CCtx_s, ptr %147, i32 0, i32 4
  %149 = load i64, ptr %19, align 8, !tbaa !3
  %150 = load ptr, ptr %11, align 8, !tbaa !11
  %151 = getelementptr inbounds nuw %struct.ZSTD_CCtx_s, ptr %150, i32 0, i32 6
  %152 = load i32, ptr %151, align 8, !tbaa !201
  %153 = call i64 @ZSTD_writeFrameHeader(ptr noundef %145, i64 noundef %146, ptr noundef %148, i64 noundef %149, i32 noundef %152)
  store i64 %153, ptr %24, align 8, !tbaa !3
  %154 = load i64, ptr %24, align 8, !tbaa !3
  %155 = load ptr, ptr %20, align 8, !tbaa !198
  %156 = getelementptr inbounds nuw i8, ptr %155, i64 %154
  store ptr %156, ptr %20, align 8, !tbaa !198
  %157 = load i64, ptr %24, align 8, !tbaa !3
  %158 = load i64, ptr %13, align 8, !tbaa !3
  %159 = sub i64 %158, %157
  store i64 %159, ptr %13, align 8, !tbaa !3
  %160 = load i64, ptr %24, align 8, !tbaa !3
  %161 = load i64, ptr %21, align 8, !tbaa !3
  %162 = add i64 %161, %160
  store i64 %162, ptr %21, align 8, !tbaa !3
  call void @llvm.lifetime.end.p0(i64 8, ptr %24) #15
  call void @llvm.lifetime.start.p0(i64 8, ptr %25) #15
  %163 = load ptr, ptr %11, align 8, !tbaa !11
  %164 = load ptr, ptr %20, align 8, !tbaa !198
  %165 = load i64, ptr %13, align 8, !tbaa !3
  %166 = load ptr, ptr %14, align 8, !tbaa !15
  %167 = load i64, ptr %15, align 8, !tbaa !3
  %168 = load ptr, ptr %16, align 8, !tbaa !15
  %169 = load i64, ptr %17, align 8, !tbaa !3
  %170 = load i64, ptr %19, align 8, !tbaa !3
  %171 = call i64 @ZSTD_compressSequencesAndLiterals_internal(ptr noundef %163, ptr noundef %164, i64 noundef %165, ptr noundef %166, i64 noundef %167, ptr noundef %168, i64 noundef %169, i64 noundef %170)
  store i64 %171, ptr %25, align 8, !tbaa !3
  br label %172

172:                                              ; preds = %144
  call void @llvm.lifetime.start.p0(i64 8, ptr %26) #15
  %173 = load i64, ptr %25, align 8, !tbaa !3
  store i64 %173, ptr %26, align 8, !tbaa !3
  %174 = load i64, ptr %26, align 8, !tbaa !3
  %175 = call i32 @ERR_isError(i64 noundef %174)
  %176 = icmp ne i32 %175, 0
  br i1 %176, label %177, label %191

177:                                              ; preds = %172
  br label %178

178:                                              ; preds = %177
  br label %179

179:                                              ; preds = %178
  br label %180

180:                                              ; preds = %179
  br label %181

181:                                              ; preds = %180
  br label %182

182:                                              ; preds = %181
  br label %183

183:                                              ; preds = %182
  br label %184

184:                                              ; preds = %183
  br label %185

185:                                              ; preds = %184
  br label %186

186:                                              ; preds = %185
  br label %187

187:                                              ; preds = %186
  br label %188

188:                                              ; preds = %187
  br label %189

189:                                              ; preds = %188
  %190 = load i64, ptr %26, align 8, !tbaa !3
  store i64 %190, ptr %10, align 8
  store i32 1, ptr %22, align 4
  br label %192

191:                                              ; preds = %172
  store i32 0, ptr %22, align 4
  br label %192

192:                                              ; preds = %191, %189
  call void @llvm.lifetime.end.p0(i64 8, ptr %26) #15
  %193 = load i32, ptr %22, align 4
  switch i32 %193, label %203 [
    i32 0, label %194
  ]

194:                                              ; preds = %192
  br label %195

195:                                              ; preds = %194
  br label %196

196:                                              ; preds = %195
  %197 = load i64, ptr %25, align 8, !tbaa !3
  %198 = load i64, ptr %21, align 8, !tbaa !3
  %199 = add i64 %198, %197
  store i64 %199, ptr %21, align 8, !tbaa !3
  %200 = load i64, ptr %25, align 8, !tbaa !3
  %201 = load i64, ptr %13, align 8, !tbaa !3
  %202 = sub i64 %201, %200
  store i64 %202, ptr %13, align 8, !tbaa !3
  store i32 0, ptr %22, align 4
  br label %203

203:                                              ; preds = %196, %192
  call void @llvm.lifetime.end.p0(i64 8, ptr %25) #15
  %204 = load i32, ptr %22, align 4
  switch i32 %204, label %210 [
    i32 0, label %205
  ]

205:                                              ; preds = %203
  br label %206

206:                                              ; preds = %205
  br label %207

207:                                              ; preds = %206
  br label %208

208:                                              ; preds = %207
  %209 = load i64, ptr %21, align 8, !tbaa !3
  store i64 %209, ptr %10, align 8
  store i32 1, ptr %22, align 4
  br label %210

210:                                              ; preds = %208, %203, %141, %118, %96, %73, %47
  call void @llvm.lifetime.end.p0(i64 8, ptr %21) #15
  call void @llvm.lifetime.end.p0(i64 8, ptr %20) #15
  %211 = load i64, ptr %10, align 8
  ret i64 %211
}