; Function Attrs: nounwind uwtable
define i64 @ZSTD_compressSequencesAndLiterals(ptr noundef %0, ptr noundef %1, i64 noundef %2, ptr noundef readonly captures(none) %3, i64 noundef %4, ptr noundef %5, i64 noundef %6, i64 noundef %7, i64 noundef %8) local_unnamed_addr #2 {
  %10 = icmp ult i64 %7, %6
  br i1 %10, label %33, label %11

11:                                               ; preds = %9
  %12 = tail call fastcc i64 @ZSTD_CCtx_init_compressStream2(ptr noundef %0, i32 noundef 2, i64 noundef %8)
  %13 = icmp ult i64 %12, -119
  br i1 %13, label %14, label %33

14:                                               ; preds = %11
  %15 = getelementptr inbounds nuw i8, ptr %0, i64 240
  %16 = getelementptr inbounds nuw i8, ptr %0, i64 372
  %17 = load i32, ptr %16, align 4, !tbaa !340
  %18 = icmp eq i32 %17, 0
  br i1 %18, label %33, label %19

19:                                               ; preds = %14
  %20 = getelementptr inbounds nuw i8, ptr %0, i64 376
  %21 = load i32, ptr %20, align 8, !tbaa !357
  %.not47 = icmp eq i32 %21, 0
  br i1 %.not47, label %22, label %33

22:                                               ; preds = %19
  %23 = getelementptr inbounds nuw i8, ptr %0, i64 276
  %24 = load i32, ptr %23, align 4, !tbaa !243
  %.not48 = icmp eq i32 %24, 0
  br i1 %.not48, label %25, label %33

25:                                               ; preds = %22
  %26 = getelementptr inbounds nuw i8, ptr %0, i64 688
  %27 = load i32, ptr %26, align 8, !tbaa !182
  %28 = tail call fastcc i64 @ZSTD_writeFrameHeader(ptr noundef %1, i64 noundef %2, ptr noundef nonnull %15, i64 noundef %8, i32 noundef %27)
  %29 = getelementptr inbounds nuw i8, ptr %1, i64 %28
  %30 = sub i64 %2, %28
  %31 = tail call fastcc i64 @ZSTD_compressSequencesAndLiterals_internal(ptr noundef nonnull %0, ptr noundef %29, i64 noundef %30, ptr noundef %3, i64 noundef %4, ptr noundef %5, i64 noundef %6, i64 noundef %8)
  %32 = icmp ult i64 %31, -119
  %.042 = select i1 %32, i64 %28, i64 0
  %spec.select = add i64 %.042, %31
  br label %33

33:                                               ; preds = %25, %22, %19, %14, %9, %11
  %.0 = phi i64 [ %12, %11 ], [ -66, %9 ], [ -14, %14 ], [ -40, %19 ], [ -14, %22 ], [ %spec.select, %25 ]
  ret i64 %.0
}